target datalayout = "e-m:e-p270:32:32-p271:32:32-p272:64:64-i64:64-i128:128-f80:128-n8:16:32:64-S128"
target triple = "x86_64-pc-linux-gnu"

%struct._typeobject = type { %struct.PyVarObject, ptr, i64, i64, ptr, i64, ptr, ptr, ptr, ptr, ptr, ptr, ptr, ptr, ptr, ptr, ptr, ptr, ptr, i64, ptr, ptr, ptr, ptr, i64, ptr, ptr, ptr, ptr, ptr, ptr, ptr, ptr, ptr, i64, ptr, ptr, ptr, ptr, ptr, ptr, ptr, ptr, ptr, ptr, ptr, i32, ptr, ptr, i8, i16 }
%struct.PyVarObject = type { %struct._object, i64 }
%struct._object = type { %union.anon, ptr }
%union.anon = type { i64 }
%struct.Parser = type { ptr, ptr, i32, i32, i32, ptr, ptr, ptr, i32, i32, ptr, i32, ptr, i32, i32, i32, i32, i32, %struct.growable_comment_array, ptr, i32, i32, i32 }
%struct.growable_comment_array = type { ptr, i64, i64 }
%struct.PyASCIIObject = type { %struct._object, i64, i64, %struct.anon.1 }
%struct.anon.1 = type { i16, i16 }
%struct.anon.0 = type { i32, i32 }
%struct._ts = type { ptr, ptr, ptr, i64, %struct.anon, i32, i32, i32, i32, i32, i32, i32, i32, ptr, ptr, ptr, ptr, ptr, ptr, ptr, ptr, i32, ptr, i64, i64, ptr, i64, i32, ptr, ptr, ptr, i64, i64, ptr, ptr, ptr, %struct._err_stackitem, ptr, i64, ptr, ptr }
%struct.anon = type { i32 }
%struct._err_stackitem = type { ptr, ptr }

@.str.4 = private unnamed_addr constant [5 x i8] c"NFKC\00", align 1
@PyExc_TypeError = external global ptr, align 8
@.str.5 = private unnamed_addr constant [57 x i8] c"unicodedata.normalize() must return a string, not %.200s\00", align 1
@.str.11 = private unnamed_addr constant [12 x i8] c"unicodedata\00", align 1
@.str.12 = private unnamed_addr constant [10 x i8] c"normalize\00", align 1
@_Py_tss_tstate = external thread_local global ptr, align 8

; Function Attrs: inlinehint nounwind uwtable
define internal ptr @_PyThreadState_GET() #4 {
  %1 = call align 8 ptr @llvm.threadlocal.address.p0(ptr align 8 @_Py_tss_tstate)
  %2 = load ptr, ptr %1, align 8, !tbaa !100
  ret ptr %2
}

; Function Attrs: alwaysinline nounwind uwtable
define internal i32 @_Py_IsImmortal(ptr noundef %0) #5 {
  %2 = alloca ptr, align 8
  store ptr %0, ptr %2, align 8, !tbaa !19
  %3 = load ptr, ptr %2, align 8, !tbaa !19
  %4 = getelementptr inbounds nuw %struct._object, ptr %3, i32 0, i32 0
  %5 = getelementptr inbounds nuw %struct.anon.0, ptr %4, i32 0, i32 0
  %6 = load i32, ptr %5, align 8, !tbaa !23
  %7 = icmp slt i32 %6, 0
  %8 = zext i1 %7 to i32
  ret i32 %8
}

; Function Attrs: inlinehint nounwind uwtable
define internal ptr @_PyInterpreterState_GET() #4 {
  %1 = alloca ptr, align 8
  call void @llvm.lifetime.start.p0(i64 8, ptr %1) #10
  %2 = call ptr @_PyThreadState_GET()
  store ptr %2, ptr %1, align 8, !tbaa !100
  %3 = load ptr, ptr %1, align 8, !tbaa !100
  %4 = getelementptr inbounds nuw %struct._ts, ptr %3, i32 0, i32 2
  %5 = load ptr, ptr %4, align 8, !tbaa !102
  call void @llvm.lifetime.end.p0(i64 8, ptr %1) #10
  ret ptr %5
}

; Function Attrs: inlinehint nounwind uwtable
define internal i32 @PyType_HasFeature(ptr noundef %0, i64 noundef %1) #4 {
  %3 = alloca ptr, align 8
  %4 = alloca i64, align 8
  %5 = alloca i64, align 8
  store ptr %0, ptr %3, align 8, !tbaa !92
  store i64 %1, ptr %4, align 8, !tbaa !20
  call void @llvm.lifetime.start.p0(i64 8, ptr %5) #10
  %6 = load ptr, ptr %3, align 8, !tbaa !92
  %7 = getelementptr inbounds nuw %struct._typeobject, ptr %6, i32 0, i32 19
  %8 = load i64, ptr %7, align 8, !tbaa !93
  store i64 %8, ptr %5, align 8, !tbaa !20
  %9 = load i64, ptr %5, align 8, !tbaa !20
  %10 = load i64, ptr %4, align 8, !tbaa !20
  %11 = and i64 %9, %10
  %12 = icmp ne i64 %11, 0
  %13 = zext i1 %12 to i32
  call void @llvm.lifetime.end.p0(i64 8, ptr %5) #10
  ret i32 %13
}

; Function Attrs: inlinehint nounwind uwtable
define internal ptr @_Py_TYPE(ptr noundef %0) #4 {
  %2 = alloca ptr, align 8
  store ptr %0, ptr %2, align 8, !tbaa !19
  %3 = load ptr, ptr %2, align 8, !tbaa !19
  %4 = getelementptr inbounds nuw %struct._object, ptr %3, i32 0, i32 1
  %5 = load ptr, ptr %4, align 8, !tbaa !99
  ret ptr %5
}

; Function Attrs: alwaysinline nounwind uwtable
define internal void @Py_DECREF(ptr noundef %0) #5 {
  %2 = alloca ptr, align 8
  store ptr %0, ptr %2, align 8, !tbaa !19
  %3 = load ptr, ptr %2, align 8, !tbaa !19
  %4 = call i32 @_Py_IsImmortal(ptr noundef %3)
  %5 = icmp ne i32 %4, 0
  br i1 %5, label %6, label %7

6:                                                ; preds = %1
  br label %16

7:                                                ; preds = %1
  %8 = load ptr, ptr %2, align 8, !tbaa !19
  %9 = getelementptr inbounds nuw %struct._object, ptr %8, i32 0, i32 0
  %10 = getelementptr inbounds nuw %struct.anon.0, ptr %9, i32 0, i32 0
  %11 = load i32, ptr %10, align 8, !tbaa !23
  %12 = add i32 %11, -1
  store i32 %12, ptr %10, align 8, !tbaa !23
  %13 = icmp eq i32 %12, 0
  br i1 %13, label %14, label %16

14:                                               ; preds = %7
  %15 = load ptr, ptr %2, align 8, !tbaa !19
  call void @_Py_Dealloc(ptr noundef %15)
  br label %16

16:                                               ; preds = %6, %14, %7
  ret void
}

; Function Attrs: nounwind uwtable
define internal i32 @init_normalization(ptr noundef %0) #0 {
  %2 = alloca i32, align 4
  %3 = alloca ptr, align 8
  store ptr %0, ptr %3, align 8, !tbaa !4
  %4 = load ptr, ptr %3, align 8, !tbaa !4
  %5 = getelementptr inbounds nuw %struct.Parser, ptr %4, i32 0, i32 12
  %6 = load ptr, ptr %5, align 8, !tbaa !89
  %7 = icmp ne ptr %6, null
  br i1 %7, label %8, label %9

8:                                                ; preds = %1
  store i32 1, ptr %2, align 4
  br label %19

9:                                                ; preds = %1
  %10 = call ptr @PyImport_ImportModuleAttrString(ptr noundef @.str.11, ptr noundef @.str.12)
  %11 = load ptr, ptr %3, align 8, !tbaa !4
  %12 = getelementptr inbounds nuw %struct.Parser, ptr %11, i32 0, i32 12
  store ptr %10, ptr %12, align 8, !tbaa !89
  %13 = load ptr, ptr %3, align 8, !tbaa !4
  %14 = getelementptr inbounds nuw %struct.Parser, ptr %13, i32 0, i32 12
  %15 = load ptr, ptr %14, align 8, !tbaa !89
  %16 = icmp ne ptr %15, null
  br i1 %16, label %18, label %17

17:                                               ; preds = %9
  store i32 0, ptr %2, align 4
  br label %19

18:                                               ; preds = %9
  store i32 1, ptr %2, align 4
  br label %19

19:                                               ; preds = %18, %17, %8
  %20 = load i32, ptr %2, align 4
  ret i32 %20
}

; Function Attrs: inlinehint nounwind uwtable
define internal i32 @PyUnicode_IS_ASCII(ptr noundef %0) #4 {
  %2 = alloca ptr, align 8
  store ptr %0, ptr %2, align 8, !tbaa !19
  %3 = load ptr, ptr %2, align 8, !tbaa !19
  %4 = getelementptr inbounds nuw %struct.PyASCIIObject, ptr %3, i32 0, i32 3
  %5 = getelementptr inbounds nuw %struct.anon.1, ptr %4, i32 0, i32 1
  %6 = load i16, ptr %5, align 2
  %7 = lshr i16 %6, 4
  %8 = and i16 %7, 1
  %9 = zext i16 %8 to i32
  ret i32 %9
}

; Function Attrs: nounwind uwtable
define hidden ptr @_PyPegen_new_identifier(ptr noundef %0, ptr noundef %1) #0 {
  %3 = alloca ptr, align 8
  %4 = alloca ptr, align 8
  %5 = alloca ptr, align 8
  %6 = alloca ptr, align 8
  %7 = alloca ptr, align 8
  %8 = alloca [2 x ptr], align 16
  %9 = alloca ptr, align 8
  %10 = alloca i32, align 4
  %11 = alloca ptr, align 8
  store ptr %0, ptr %4, align 8, !tbaa !4
  store ptr %1, ptr %5, align 8, !tbaa !21
  call void @llvm.lifetime.start.p0(i64 8, ptr %6) #10
  %12 = load ptr, ptr %5, align 8, !tbaa !21
  %13 = load ptr, ptr %5, align 8, !tbaa !21
  %14 = call i64 @strlen(ptr noundef %13) #11
  %15 = call ptr @PyUnicode_DecodeUTF8(ptr noundef %12, i64 noundef %14, ptr noundef null)
  store ptr %15, ptr %6, align 8, !tbaa !19
  %16 = load ptr, ptr %6, align 8, !tbaa !19
  %17 = icmp ne ptr %16, null
  br i1 %17, label %19, label %18

18:                                               ; preds = %2
  br label %80

19:                                               ; preds = %2
  %20 = load ptr, ptr %6, align 8, !tbaa !19
  %21 = call i32 @PyUnicode_IS_ASCII(ptr noundef %20)
  %22 = icmp ne i32 %21, 0
  br i1 %22, label %67, label %23

23:                                               ; preds = %19
  %24 = load ptr, ptr %4, align 8, !tbaa !4
  %25 = call i32 @init_normalization(ptr noundef %24)
  %26 = icmp ne i32 %25, 0
  br i1 %26, label %29, label %27

27:                                               ; preds = %23
  %28 = load ptr, ptr %6, align 8, !tbaa !19
  call void @Py_DECREF(ptr noundef %28)
  br label %80

29:                                               ; preds = %23
  call void @llvm.lifetime.start.p0(i64 8, ptr %7) #10
  %30 = call ptr @PyUnicode_InternFromString(ptr noundef @.str.4)
  store ptr %30, ptr %7, align 8, !tbaa !19
  %31 = load ptr, ptr %7, align 8, !tbaa !19
  %32 = icmp eq ptr %31, null
  br i1 %32, label %33, label %35

33:                                               ; preds = %29
  %34 = load ptr, ptr %6, align 8, !tbaa !19
  call void @Py_DECREF(ptr noundef %34)
  store i32 2, ptr %10, align 4
  br label %64

35:                                               ; preds = %29
  call void @llvm.lifetime.start.p0(i64 16, ptr %8) #10
  %36 = load ptr, ptr %7, align 8, !tbaa !19
  store ptr %36, ptr %8, align 8, !tbaa !19
  %37 = getelementptr inbounds ptr, ptr %8, i64 1
  %38 = load ptr, ptr %6, align 8, !tbaa !19
  store ptr %38, ptr %37, align 8, !tbaa !19
  call void @llvm.lifetime.start.p0(i64 8, ptr %9) #10
  %39 = load ptr, ptr %4, align 8, !tbaa !4
  %40 = getelementptr inbounds nuw %struct.Parser, ptr %39, i32 0, i32 12
  %41 = load ptr, ptr %40, align 8, !tbaa !89
  %42 = getelementptr inbounds [2 x ptr], ptr %8, i64 0, i64 0
  %43 = call ptr @PyObject_Vectorcall(ptr noundef %41, ptr noundef %42, i64 noundef 2, ptr noundef null)
  store ptr %43, ptr %9, align 8, !tbaa !19
  %44 = load ptr, ptr %6, align 8, !tbaa !19
  call void @Py_DECREF(ptr noundef %44)
  %45 = load ptr, ptr %7, align 8, !tbaa !19
  call void @Py_DECREF(ptr noundef %45)
  %46 = load ptr, ptr %9, align 8, !tbaa !19
  %47 = icmp ne ptr %46, null
  br i1 %47, label %49, label %48

48:                                               ; preds = %35
  store i32 2, ptr %10, align 4
  br label %63

49:                                               ; preds = %35
  %50 = load ptr, ptr %9, align 8, !tbaa !19
  %51 = call ptr @_Py_TYPE(ptr noundef %50)
  %52 = call i32 @PyType_HasFeature(ptr noundef %51, i64 noundef 268435456)
  %53 = icmp ne i32 %52, 0
  br i1 %53, label %61, label %54

54:                                               ; preds = %49
  %55 = load ptr, ptr @PyExc_TypeError, align 8, !tbaa !19
  %56 = load ptr, ptr %9, align 8, !tbaa !19
  %57 = call ptr @_Py_TYPE(ptr noundef %56)
  %58 = call ptr @_PyType_Name(ptr noundef %57)
  %59 = call ptr (ptr, ptr, ...) @PyErr_Format(ptr noundef %55, ptr noundef @.str.5, ptr noundef %58)
  %60 = load ptr, ptr %9, align 8, !tbaa !19
  call void @Py_DECREF(ptr noundef %60)
  store i32 2, ptr %10, align 4
  br label %63

61:                                               ; preds = %49
  %62 = load ptr, ptr %9, align 8, !tbaa !19
  store ptr %62, ptr %6, align 8, !tbaa !19
  store i32 0, ptr %10, align 4
  br label %63

63:                                               ; preds = %54, %48, %61
  call void @llvm.lifetime.end.p0(i64 8, ptr %9) #10
  call void @llvm.lifetime.end.p0(i64 16, ptr %8) #10
  br label %64

64:                                               ; preds = %33, %63
  call void @llvm.lifetime.end.p0(i64 8, ptr %7) #10
  %65 = load i32, ptr %10, align 4
  switch i32 %65, label %83 [
    i32 0, label %66
    i32 2, label %80
  ]

66:                                               ; preds = %64
  br label %67

67:                                               ; preds = %66, %19
  %68 = call ptr @_PyInterpreterState_GET()
  store ptr %68, ptr %11, align 8, !tbaa !90
  %69 = load ptr, ptr %11, align 8, !tbaa !90
  call void @_PyUnicode_InternImmortal(ptr noundef %69, ptr noundef %6)
  %70 = load ptr, ptr %4, align 8, !tbaa !4
  %71 = getelementptr inbounds nuw %struct.Parser, ptr %70, i32 0, i32 5
  %72 = load ptr, ptr %71, align 8, !tbaa !32
  %73 = load ptr, ptr %6, align 8, !tbaa !19
  %74 = call i32 @_PyArena_AddPyObject(ptr noundef %72, ptr noundef %73)
  %75 = icmp slt i32 %74, 0
  br i1 %75, label %76, label %78

76:                                               ; preds = %67
  %77 = load ptr, ptr %6, align 8, !tbaa !19
  call void @Py_DECREF(ptr noundef %77)
  br label %80

78:                                               ; preds = %67
  %79 = load ptr, ptr %6, align 8, !tbaa !19
  store ptr %79, ptr %3, align 8
  store i32 1, ptr %10, align 4
  br label %83

80:                                               ; preds = %64, %76, %27, %18
  %81 = load ptr, ptr %4, align 8, !tbaa !4
  %82 = getelementptr inbounds nuw %struct.Parser, ptr %81, i32 0, i32 15
  store i32 1, ptr %82, align 8, !tbaa !86
  store ptr null, ptr %3, align 8
  store i32 1, ptr %10, align 4
  br label %83

83:                                               ; preds = %80, %78, %64
  call void @llvm.lifetime.end.p0(i64 8, ptr %6) #10
  %84 = load ptr, ptr %3, align 8
  ret ptr %84
}