; Function Attrs: nounwind uwtable
define hidden ptr @_PyPegen_new_identifier(ptr noundef captures(none) %0, ptr noundef %1) local_unnamed_addr #1 {
  %3 = alloca ptr, align 8
  %4 = alloca [2 x ptr], align 16
  call void @llvm.lifetime.start.p0(i64 8, ptr nonnull %3) #13
  %5 = tail call i64 @strlen(ptr noundef nonnull dereferenceable(1) %1) #14
  %6 = tail call ptr @PyUnicode_DecodeUTF8(ptr noundef nonnull %1, i64 noundef %5, ptr noundef null) #13
  store ptr %6, ptr %3, align 8, !tbaa !19
  %.not = icmp eq ptr %6, null
  br i1 %.not, label %Py_DECREF.exit33, label %7

7:                                                ; preds = %2
  %8 = getelementptr i8, ptr %6, i64 34
  %.val = load i16, ptr %8, align 2
  %9 = and i16 %.val, 16
  %.not20 = icmp eq i16 %9, 0
  br i1 %.not20, label %10, label %55

10:                                               ; preds = %7
  %11 = getelementptr inbounds nuw i8, ptr %0, i64 80
  %12 = load ptr, ptr %11, align 8, !tbaa !89
  %.not.i42 = icmp eq ptr %12, null
  br i1 %.not.i42, label %init_normalization.exit, label %init_normalization.exit.thread

init_normalization.exit:                          ; preds = %10
  %13 = tail call ptr @PyImport_ImportModuleAttrString(ptr noundef nonnull @.str.11, ptr noundef nonnull @.str.12) #13
  store ptr %13, ptr %11, align 8, !tbaa !89
  %.not3.i.not = icmp eq ptr %13, null
  br i1 %.not3.i.not, label %14, label %init_normalization.exit.thread

14:                                               ; preds = %init_normalization.exit
  %15 = load i32, ptr %6, align 8, !tbaa !18
  %.not.i32 = icmp sgt i32 %15, -1
  br i1 %.not.i32, label %16, label %Py_DECREF.exit33

16:                                               ; preds = %14
  %17 = add nsw i32 %15, -1
  store i32 %17, ptr %6, align 8, !tbaa !18
  %18 = icmp eq i32 %17, 0
  br i1 %18, label %19, label %Py_DECREF.exit33

19:                                               ; preds = %16
  tail call void @_Py_Dealloc(ptr noundef nonnull %6) #13
  br label %Py_DECREF.exit33

init_normalization.exit.thread:                   ; preds = %10, %init_normalization.exit
  %20 = tail call ptr @PyUnicode_InternFromString(ptr noundef nonnull @.str.4) #13
  %21 = icmp eq ptr %20, null
  br i1 %21, label %22, label %28

22:                                               ; preds = %init_normalization.exit.thread
  %23 = load i32, ptr %6, align 8, !tbaa !18
  %.not.i30 = icmp sgt i32 %23, -1
  br i1 %.not.i30, label %24, label %Py_DECREF.exit33

24:                                               ; preds = %22
  %25 = add nsw i32 %23, -1
  store i32 %25, ptr %6, align 8, !tbaa !18
  %26 = icmp eq i32 %25, 0
  br i1 %26, label %27, label %Py_DECREF.exit33

27:                                               ; preds = %24
  tail call void @_Py_Dealloc(ptr noundef nonnull %6) #13
  br label %Py_DECREF.exit33

28:                                               ; preds = %init_normalization.exit.thread
  call void @llvm.lifetime.start.p0(i64 16, ptr nonnull %4) #13
  store ptr %20, ptr %4, align 16, !tbaa !19
  %29 = getelementptr inbounds nuw i8, ptr %4, i64 8
  store ptr %6, ptr %29, align 8, !tbaa !19
  %30 = load ptr, ptr %11, align 8, !tbaa !89
  %31 = call ptr @PyObject_Vectorcall(ptr noundef %30, ptr noundef nonnull %4, i64 noundef 2, ptr noundef null) #13
  %32 = load i32, ptr %6, align 8, !tbaa !18
  %.not.i28 = icmp sgt i32 %32, -1
  br i1 %.not.i28, label %33, label %Py_DECREF.exit29

33:                                               ; preds = %28
  %34 = add nsw i32 %32, -1
  store i32 %34, ptr %6, align 8, !tbaa !18
  %35 = icmp eq i32 %34, 0
  br i1 %35, label %36, label %Py_DECREF.exit29

36:                                               ; preds = %33
  call void @_Py_Dealloc(ptr noundef nonnull %6) #13
  br label %Py_DECREF.exit29

Py_DECREF.exit29:                                 ; preds = %28, %33, %36
  %37 = load i32, ptr %20, align 8, !tbaa !18
  %.not.i26 = icmp sgt i32 %37, -1
  br i1 %.not.i26, label %38, label %Py_DECREF.exit27

38:                                               ; preds = %Py_DECREF.exit29
  %39 = add nsw i32 %37, -1
  store i32 %39, ptr %20, align 8, !tbaa !18
  %40 = icmp eq i32 %39, 0
  br i1 %40, label %41, label %Py_DECREF.exit27

41:                                               ; preds = %38
  call void @_Py_Dealloc(ptr noundef nonnull %20) #13
  br label %Py_DECREF.exit27

Py_DECREF.exit27:                                 ; preds = %Py_DECREF.exit29, %38, %41
  %.not22 = icmp eq ptr %31, null
  br i1 %.not22, label %Py_DECREF.exit31.thread47, label %42

42:                                               ; preds = %Py_DECREF.exit27
  %43 = getelementptr i8, ptr %31, i64 8
  %.val39 = load ptr, ptr %43, align 8, !tbaa !90
  %44 = getelementptr i8, ptr %.val39, i64 168
  %.val41 = load i64, ptr %44, align 8, !tbaa !91
  %45 = and i64 %.val41, 268435456
  %.not23 = icmp eq i64 %45, 0
  br i1 %.not23, label %46, label %Py_DECREF.exit31

46:                                               ; preds = %42
  %47 = load ptr, ptr @PyExc_TypeError, align 8, !tbaa !19
  %48 = call ptr @_PyType_Name(ptr noundef nonnull %.val39) #13
  %49 = call ptr (ptr, ptr, ...) @PyErr_Format(ptr noundef %47, ptr noundef nonnull @.str.5, ptr noundef %48) #13
  %50 = load i32, ptr %31, align 8, !tbaa !18
  %.not.i24 = icmp sgt i32 %50, -1
  br i1 %.not.i24, label %51, label %Py_DECREF.exit31.thread47

51:                                               ; preds = %46
  %52 = add nsw i32 %50, -1
  store i32 %52, ptr %31, align 8, !tbaa !18
  %53 = icmp eq i32 %52, 0
  br i1 %53, label %54, label %Py_DECREF.exit31.thread47

54:                                               ; preds = %51
  call void @_Py_Dealloc(ptr noundef nonnull %31) #13
  br label %Py_DECREF.exit31.thread47

Py_DECREF.exit31.thread47:                        ; preds = %Py_DECREF.exit27, %46, %51, %54
  call void @llvm.lifetime.end.p0(i64 16, ptr nonnull %4) #13
  br label %Py_DECREF.exit33

Py_DECREF.exit31:                                 ; preds = %42
  store ptr %31, ptr %3, align 8, !tbaa !19
  call void @llvm.lifetime.end.p0(i64 16, ptr nonnull %4) #13
  br label %55

55:                                               ; preds = %Py_DECREF.exit31, %7
  %56 = call align 8 ptr @llvm.threadlocal.address.p0(ptr align 8 @_Py_tss_tstate)
  %57 = load ptr, ptr %56, align 8, !tbaa !97
  %58 = getelementptr inbounds nuw i8, ptr %57, i64 16
  %59 = load ptr, ptr %58, align 8, !tbaa !99
  call void @_PyUnicode_InternImmortal(ptr noundef %59, ptr noundef nonnull %3) #13
  %60 = getelementptr inbounds nuw i8, ptr %0, i64 32
  %61 = load ptr, ptr %60, align 8, !tbaa !28
  %62 = load ptr, ptr %3, align 8, !tbaa !19
  %63 = call i32 @_PyArena_AddPyObject(ptr noundef %61, ptr noundef %62) #13
  %64 = icmp slt i32 %63, 0
  %65 = load ptr, ptr %3, align 8, !tbaa !19
  br i1 %64, label %66, label %73

66:                                               ; preds = %55
  %67 = load i32, ptr %65, align 8, !tbaa !18
  %.not.i = icmp sgt i32 %67, -1
  br i1 %.not.i, label %68, label %Py_DECREF.exit33

68:                                               ; preds = %66
  %69 = add nsw i32 %67, -1
  store i32 %69, ptr %65, align 8, !tbaa !18
  %70 = icmp eq i32 %69, 0
  br i1 %70, label %71, label %Py_DECREF.exit33

71:                                               ; preds = %68
  call void @_Py_Dealloc(ptr noundef nonnull %65) #13
  br label %Py_DECREF.exit33

Py_DECREF.exit33:                                 ; preds = %27, %24, %22, %71, %68, %66, %Py_DECREF.exit31.thread47, %19, %16, %14, %2
  %72 = getelementptr inbounds nuw i8, ptr %0, i64 96
  store i32 1, ptr %72, align 8, !tbaa !87
  br label %73

73:                                               ; preds = %55, %Py_DECREF.exit33
  %.0 = phi ptr [ null, %Py_DECREF.exit33 ], [ %65, %55 ]
  call void @llvm.lifetime.end.p0(i64 8, ptr nonnull %3) #13
  ret ptr %.0
}